target datalayout = "e-m:e-p270:32:32-p271:32:32-p272:64:64-i64:64-i128:128-f80:128-n8:16:32:64-S128"
target triple = "x86_64-pc-linux-gnu"

%struct.mbedtls_chachapoly_context = type { %struct.mbedtls_chacha20_context, %struct.mbedtls_poly1305_context, i64, i64, i32, i32 }
%struct.mbedtls_chacha20_context = type { [16 x i32], [64 x i8], i64 }
%struct.mbedtls_poly1305_context = type { [4 x i32], [4 x i32], [5 x i32], [16 x i8], i64 }

@.str = private unnamed_addr constant [29 x i8] c"  ChaCha20-Poly1305 test %u \00", align 1
@test_key = internal constant [1 x [32 x i8]] [[32 x i8] c"\80\81\82\83\84\85\86\87\88\89\8A\8B\8C\8D\8E\8F\90\91\92\93\94\95\96\97\98\99\9A\9B\9C\9D\9E\9F"], align 16
@.str.1 = private unnamed_addr constant [25 x i8] c"setkey() error code: %i\0A\00", align 1
@test_input_len = internal constant [1 x i64] [i64 114], align 8
@test_nonce = internal constant [1 x [12 x i8]] [[12 x i8] c"\07\00\00\00@ABCDEFG"], align 1
@test_aad = internal constant [1 x [12 x i8]] [[12 x i8] c"PQRS\C0\C1\C2\C3\C4\C5\C6\C7"], align 1
@test_aad_len = internal constant [1 x i64] [i64 12], align 8
@test_input = internal constant [1 x [114 x i8]] [[114 x i8] c"Ladies and Gentlemen of the class of '99: If I could offer you only one tip for the future, sunscreen would be it."], align 16
@.str.2 = private unnamed_addr constant [32 x i8] c"crypt_and_tag() error code: %i\0A\00", align 1
@.str.3 = private unnamed_addr constant [24 x i8] c"failure (wrong output)\0A\00", align 1
@test_mac = internal constant [1 x [16 x i8]] [[16 x i8] c"\1A\E1\0BYO\09\E2j~\90.\CB\D0`\06\91"], align 16
@.str.4 = private unnamed_addr constant [21 x i8] c"failure (wrong MAC)\0A\00", align 1
@.str.5 = private unnamed_addr constant [8 x i8] c"passed\0A\00", align 1
@.str.6 = private unnamed_addr constant [2 x i8] c"\0A\00", align 1

; Function Attrs: nounwind uwtable
define hidden void @mbedtls_chachapoly_free(ptr noundef %0) #0 {
  %2 = alloca ptr, align 8
  store ptr %0, ptr %2, align 8, !tbaa !3
  %3 = load ptr, ptr %2, align 8, !tbaa !3
  %4 = icmp eq ptr %3, null
  br i1 %4, label %5, label %6

5:                                                ; preds = %1
  br label %19

6:                                                ; preds = %1
  %7 = load ptr, ptr %2, align 8, !tbaa !3
  %8 = getelementptr inbounds nuw %struct.mbedtls_chachapoly_context, ptr %7, i32 0, i32 0
  call void @mbedtls_chacha20_free(ptr noundef %8)
  %9 = load ptr, ptr %2, align 8, !tbaa !3
  %10 = getelementptr inbounds nuw %struct.mbedtls_chachapoly_context, ptr %9, i32 0, i32 1
  call void @mbedtls_poly1305_free(ptr noundef %10)
  %11 = load ptr, ptr %2, align 8, !tbaa !3
  %12 = getelementptr inbounds nuw %struct.mbedtls_chachapoly_context, ptr %11, i32 0, i32 2
  store i64 0, ptr %12, align 8, !tbaa !8
  %13 = load ptr, ptr %2, align 8, !tbaa !3
  %14 = getelementptr inbounds nuw %struct.mbedtls_chachapoly_context, ptr %13, i32 0, i32 3
  store i64 0, ptr %14, align 8, !tbaa !14
  %15 = load ptr, ptr %2, align 8, !tbaa !3
  %16 = getelementptr inbounds nuw %struct.mbedtls_chachapoly_context, ptr %15, i32 0, i32 4
  store i32 0, ptr %16, align 8, !tbaa !15
  %17 = load ptr, ptr %2, align 8, !tbaa !3
  %18 = getelementptr inbounds nuw %struct.mbedtls_chachapoly_context, ptr %17, i32 0, i32 5
  store i32 0, ptr %18, align 4, !tbaa !16
  br label %19

19:                                               ; preds = %6, %5
  ret void
}

; Function Attrs: nounwind uwtable
define hidden i32 @mbedtls_chachapoly_encrypt_and_tag(ptr noundef %0, i64 noundef %1, ptr noundef %2, ptr noundef %3, i64 noundef %4, ptr noundef %5, ptr noundef %6, ptr noundef %7) #0 {
  %9 = alloca ptr, align 8
  %10 = alloca i64, align 8
  %11 = alloca ptr, align 8
  %12 = alloca ptr, align 8
  %13 = alloca i64, align 8
  %14 = alloca ptr, align 8
  %15 = alloca ptr, align 8
  %16 = alloca ptr, align 8
  store ptr %0, ptr %9, align 8, !tbaa !3
  store i64 %1, ptr %10, align 8, !tbaa !20
  store ptr %2, ptr %11, align 8, !tbaa !17
  store ptr %3, ptr %12, align 8, !tbaa !17
  store i64 %4, ptr %13, align 8, !tbaa !20
  store ptr %5, ptr %14, align 8, !tbaa !17
  store ptr %6, ptr %15, align 8, !tbaa !17
  store ptr %7, ptr %16, align 8, !tbaa !17
  %17 = load ptr, ptr %9, align 8, !tbaa !3
  %18 = load i64, ptr %10, align 8, !tbaa !20
  %19 = load ptr, ptr %11, align 8, !tbaa !17
  %20 = load ptr, ptr %12, align 8, !tbaa !17
  %21 = load i64, ptr %13, align 8, !tbaa !20
  %22 = load ptr, ptr %14, align 8, !tbaa !17
  %23 = load ptr, ptr %15, align 8, !tbaa !17
  %24 = load ptr, ptr %16, align 8, !tbaa !17
  %25 = call i32 @chachapoly_crypt_and_tag(ptr noundef %17, i32 noundef 0, i64 noundef %18, ptr noundef %19, ptr noundef %20, i64 noundef %21, ptr noundef %22, ptr noundef %23, ptr noundef %24)
  ret i32 %25
}

; Function Attrs: nounwind uwtable
define hidden i32 @mbedtls_chachapoly_setkey(ptr noundef %0, ptr noundef %1) #0 {
  %3 = alloca ptr, align 8
  %4 = alloca ptr, align 8
  %5 = alloca i32, align 4
  store ptr %0, ptr %3, align 8, !tbaa !3
  store ptr %1, ptr %4, align 8, !tbaa !17
  call void @llvm.lifetime.start.p0(i64 4, ptr %5) #7
  store i32 -110, ptr %5, align 4, !tbaa !19
  %6 = load ptr, ptr %3, align 8, !tbaa !3
  %7 = getelementptr inbounds nuw %struct.mbedtls_chachapoly_context, ptr %6, i32 0, i32 0
  %8 = load ptr, ptr %4, align 8, !tbaa !17
  %9 = call i32 @mbedtls_chacha20_setkey(ptr noundef %7, ptr noundef %8)
  store i32 %9, ptr %5, align 4, !tbaa !19
  %10 = load i32, ptr %5, align 4, !tbaa !19
  call void @llvm.lifetime.end.p0(i64 4, ptr %5) #7
  ret i32 %10
}

; Function Attrs: nounwind uwtable
define hidden void @mbedtls_chachapoly_init(ptr noundef %0) #0 {
  %2 = alloca ptr, align 8
  store ptr %0, ptr %2, align 8, !tbaa !3
  %3 = load ptr, ptr %2, align 8, !tbaa !3
  %4 = getelementptr inbounds nuw %struct.mbedtls_chachapoly_context, ptr %3, i32 0, i32 0
  call void @mbedtls_chacha20_init(ptr noundef %4)
  %5 = load ptr, ptr %2, align 8, !tbaa !3
  %6 = getelementptr inbounds nuw %struct.mbedtls_chachapoly_context, ptr %5, i32 0, i32 1
  call void @mbedtls_poly1305_init(ptr noundef %6)
  %7 = load ptr, ptr %2, align 8, !tbaa !3
  %8 = getelementptr inbounds nuw %struct.mbedtls_chachapoly_context, ptr %7, i32 0, i32 2
  store i64 0, ptr %8, align 8, !tbaa !8
  %9 = load ptr, ptr %2, align 8, !tbaa !3
  %10 = getelementptr inbounds nuw %struct.mbedtls_chachapoly_context, ptr %9, i32 0, i32 3
  store i64 0, ptr %10, align 8, !tbaa !14
  %11 = load ptr, ptr %2, align 8, !tbaa !3
  %12 = getelementptr inbounds nuw %struct.mbedtls_chachapoly_context, ptr %11, i32 0, i32 4
  store i32 0, ptr %12, align 8, !tbaa !15
  %13 = load ptr, ptr %2, align 8, !tbaa !3
  %14 = getelementptr inbounds nuw %struct.mbedtls_chachapoly_context, ptr %13, i32 0, i32 5
  store i32 0, ptr %14, align 4, !tbaa !16
  ret void
}

; Function Attrs: nounwind uwtable
define hidden i32 @mbedtls_chachapoly_self_test(i32 noundef %0) #0 {
  %2 = alloca i32, align 4
  %3 = alloca i32, align 4
  %4 = alloca %struct.mbedtls_chachapoly_context, align 8
  %5 = alloca i32, align 4
  %6 = alloca i32, align 4
  %7 = alloca [200 x i8], align 16
  %8 = alloca [16 x i8], align 16
  %9 = alloca i32, align 4
  store i32 %0, ptr %3, align 4, !tbaa !19
  call void @llvm.lifetime.start.p0(i64 240, ptr %4) #7
  call void @llvm.lifetime.start.p0(i64 4, ptr %5) #7
  call void @llvm.lifetime.start.p0(i64 4, ptr %6) #7
  store i32 -110, ptr %6, align 4, !tbaa !19
  call void @llvm.lifetime.start.p0(i64 200, ptr %7) #7
  call void @llvm.lifetime.start.p0(i64 16, ptr %8) #7
  store i32 0, ptr %5, align 4, !tbaa !19
  br label %10

10:                                               ; preds = %117, %1
  %11 = load i32, ptr %5, align 4, !tbaa !19
  %12 = icmp ult i32 %11, 1
  br i1 %12, label %13, label %120

13:                                               ; preds = %10
  %14 = load i32, ptr %3, align 4, !tbaa !19
  %15 = icmp ne i32 %14, 0
  br i1 %15, label %16, label %19

16:                                               ; preds = %13
  %17 = load i32, ptr %5, align 4, !tbaa !19
  %18 = call i32 (ptr, ...) @printf(ptr noundef @.str, i32 noundef %17)
  br label %19

19:                                               ; preds = %16, %13
  call void @mbedtls_chachapoly_init(ptr noundef %4)
  %20 = load i32, ptr %5, align 4, !tbaa !19
  %21 = zext i32 %20 to i64
  %22 = getelementptr inbounds nuw [1 x [32 x i8]], ptr @test_key, i64 0, i64 %21
  %23 = getelementptr inbounds [32 x i8], ptr %22, i64 0, i64 0
  %24 = call i32 @mbedtls_chachapoly_setkey(ptr noundef %4, ptr noundef %23)
  store i32 %24, ptr %6, align 4, !tbaa !19
  br label %25

25:                                               ; preds = %19
  %26 = load i32, ptr %6, align 4, !tbaa !19
  %27 = icmp eq i32 0, %26
  br i1 %27, label %35, label %28

28:                                               ; preds = %25
  %29 = load i32, ptr %3, align 4, !tbaa !19
  %30 = icmp ne i32 %29, 0
  br i1 %30, label %31, label %34

31:                                               ; preds = %28
  %32 = load i32, ptr %6, align 4, !tbaa !19
  %33 = call i32 (ptr, ...) @printf(ptr noundef @.str.1, i32 noundef %32)
  br label %34

34:                                               ; preds = %31, %28
  store i32 -1, ptr %2, align 4
  store i32 1, ptr %9, align 4
  br label %126

35:                                               ; preds = %25
  br label %36

36:                                               ; preds = %35
  br label %37

37:                                               ; preds = %36
  %38 = load i32, ptr %5, align 4, !tbaa !19
  %39 = zext i32 %38 to i64
  %40 = getelementptr inbounds nuw [1 x i64], ptr @test_input_len, i64 0, i64 %39
  %41 = load i64, ptr %40, align 8, !tbaa !20
  %42 = load i32, ptr %5, align 4, !tbaa !19
  %43 = zext i32 %42 to i64
  %44 = getelementptr inbounds nuw [1 x [12 x i8]], ptr @test_nonce, i64 0, i64 %43
  %45 = getelementptr inbounds [12 x i8], ptr %44, i64 0, i64 0
  %46 = load i32, ptr %5, align 4, !tbaa !19
  %47 = zext i32 %46 to i64
  %48 = getelementptr inbounds nuw [1 x [12 x i8]], ptr @test_aad, i64 0, i64 %47
  %49 = getelementptr inbounds [12 x i8], ptr %48, i64 0, i64 0
  %50 = load i32, ptr %5, align 4, !tbaa !19
  %51 = zext i32 %50 to i64
  %52 = getelementptr inbounds nuw [1 x i64], ptr @test_aad_len, i64 0, i64 %51
  %53 = load i64, ptr %52, align 8, !tbaa !20
  %54 = load i32, ptr %5, align 4, !tbaa !19
  %55 = zext i32 %54 to i64
  %56 = getelementptr inbounds nuw [1 x [114 x i8]], ptr @test_input, i64 0, i64 %55
  %57 = getelementptr inbounds [114 x i8], ptr %56, i64 0, i64 0
  %58 = getelementptr inbounds [200 x i8], ptr %7, i64 0, i64 0
  %59 = getelementptr inbounds [16 x i8], ptr %8, i64 0, i64 0
  %60 = call i32 @mbedtls_chachapoly_encrypt_and_tag(ptr noundef %4, i64 noundef %41, ptr noundef %45, ptr noundef %49, i64 noundef %53, ptr noundef %57, ptr noundef %58, ptr noundef %59)
  store i32 %60, ptr %6, align 4, !tbaa !19
  br label %61

61:                                               ; preds = %37
  %62 = load i32, ptr %6, align 4, !tbaa !19
  %63 = icmp eq i32 0, %62
  br i1 %63, label %71, label %64

64:                                               ; preds = %61
  %65 = load i32, ptr %3, align 4, !tbaa !19
  %66 = icmp ne i32 %65, 0
  br i1 %66, label %67, label %70

67:                                               ; preds = %64
  %68 = load i32, ptr %6, align 4, !tbaa !19
  %69 = call i32 (ptr, ...) @printf(ptr noundef @.str.2, i32 noundef %68)
  br label %70

70:                                               ; preds = %67, %64
  store i32 -1, ptr %2, align 4
  store i32 1, ptr %9, align 4
  br label %126

71:                                               ; preds = %61
  br label %72

72:                                               ; preds = %71
  br label %73

73:                                               ; preds = %72
  br label %74

74:                                               ; preds = %73
  %75 = getelementptr inbounds [200 x i8], ptr %7, i64 0, i64 0
  %76 = load i32, ptr %5, align 4, !tbaa !19
  %77 = zext i32 %76 to i64
  %78 = getelementptr inbounds nuw [1 x [114 x i8]], ptr @test_output, i64 0, i64 %77
  %79 = getelementptr inbounds [114 x i8], ptr %78, i64 0, i64 0
  %80 = load i32, ptr %5, align 4, !tbaa !19
  %81 = zext i32 %80 to i64
  %82 = getelementptr inbounds nuw [1 x i64], ptr @test_input_len, i64 0, i64 %81
  %83 = load i64, ptr %82, align 8, !tbaa !20
  %84 = call i32 @memcmp(ptr noundef %75, ptr noundef %79, i64 noundef %83) #8
  %85 = icmp eq i32 0, %84
  br i1 %85, label %92, label %86

86:                                               ; preds = %74
  %87 = load i32, ptr %3, align 4, !tbaa !19
  %88 = icmp ne i32 %87, 0
  br i1 %88, label %89, label %91

89:                                               ; preds = %86
  %90 = call i32 (ptr, ...) @printf(ptr noundef @.str.3)
  br label %91

91:                                               ; preds = %89, %86
  store i32 -1, ptr %2, align 4
  store i32 1, ptr %9, align 4
  br label %126

92:                                               ; preds = %74
  br label %93

93:                                               ; preds = %92
  br label %94

94:                                               ; preds = %93
  br label %95

95:                                               ; preds = %94
  %96 = getelementptr inbounds [16 x i8], ptr %8, i64 0, i64 0
  %97 = load i32, ptr %5, align 4, !tbaa !19
  %98 = zext i32 %97 to i64
  %99 = getelementptr inbounds nuw [1 x [16 x i8]], ptr @test_mac, i64 0, i64 %98
  %100 = getelementptr inbounds [16 x i8], ptr %99, i64 0, i64 0
  %101 = call i32 @memcmp(ptr noundef %96, ptr noundef %100, i64 noundef 16) #8
  %102 = icmp eq i32 0, %101
  br i1 %102, label %109, label %103

103:                                              ; preds = %95
  %104 = load i32, ptr %3, align 4, !tbaa !19
  %105 = icmp ne i32 %104, 0
  br i1 %105, label %106, label %108

106:                                              ; preds = %103
  %107 = call i32 (ptr, ...) @printf(ptr noundef @.str.4)
  br label %108

108:                                              ; preds = %106, %103
  store i32 -1, ptr %2, align 4
  store i32 1, ptr %9, align 4
  br label %126

109:                                              ; preds = %95
  br label %110

110:                                              ; preds = %109
  br label %111

111:                                              ; preds = %110
  call void @mbedtls_chachapoly_free(ptr noundef %4)
  %112 = load i32, ptr %3, align 4, !tbaa !19
  %113 = icmp ne i32 %112, 0
  br i1 %113, label %114, label %116

114:                                              ; preds = %111
  %115 = call i32 (ptr, ...) @printf(ptr noundef @.str.5)
  br label %116

116:                                              ; preds = %114, %111
  br label %117

117:                                              ; preds = %116
  %118 = load i32, ptr %5, align 4, !tbaa !19
  %119 = add i32 %118, 1
  store i32 %119, ptr %5, align 4, !tbaa !19
  br label %10, !llvm.loop !22

120:                                              ; preds = %10
  %121 = load i32, ptr %3, align 4, !tbaa !19
  %122 = icmp ne i32 %121, 0
  br i1 %122, label %123, label %125

123:                                              ; preds = %120
  %124 = call i32 (ptr, ...) @printf(ptr noundef @.str.6)
  br label %125

125:                                              ; preds = %123, %120
  store i32 0, ptr %2, align 4
  store i32 1, ptr %9, align 4
  br label %126

126:                                              ; preds = %125, %108, %91, %70, %34
  call void @llvm.lifetime.end.p0(i64 16, ptr %8) #7
  call void @llvm.lifetime.end.p0(i64 200, ptr %7) #7
  call void @llvm.lifetime.end.p0(i64 4, ptr %6) #7
  call void @llvm.lifetime.end.p0(i64 4, ptr %5) #7
  call void @llvm.lifetime.end.p0(i64 240, ptr %4) #7
  %127 = load i32, ptr %2, align 4
  ret i32 %127
}