; Function Attrs: nounwind uwtable
define hidden range(i32 -1, 1) i32 @mbedtls_chachapoly_self_test(i32 noundef %0) local_unnamed_addr #0 {
.critedge:
  %1 = alloca %struct.mbedtls_chachapoly_context, align 8
  %2 = alloca [200 x i8], align 16
  %3 = alloca [16 x i8], align 16
  call void @llvm.lifetime.start.p0(i64 240, ptr nonnull %1) #7
  call void @llvm.lifetime.start.p0(i64 200, ptr nonnull %2) #7
  call void @llvm.lifetime.start.p0(i64 16, ptr nonnull %3) #7
  %.not27 = icmp eq i32 %0, 0
  br i1 %.not27, label %6, label %4

4:                                                ; preds = %.critedge
  %5 = tail call i32 (ptr, ...) @printf(ptr noundef nonnull dereferenceable(1) @.str, i32 noundef 0)
  br label %6

6:                                                ; preds = %4, %.critedge
  call void @mbedtls_chacha20_init(ptr noundef nonnull %1) #7
  %7 = getelementptr inbounds nuw i8, ptr %1, i64 136
  call void @mbedtls_poly1305_init(ptr noundef nonnull %7) #7
  %8 = getelementptr inbounds nuw i8, ptr %1, i64 216
  call void @llvm.memset.p0.i64(ptr noundef nonnull align 8 dereferenceable(24) %8, i8 0, i64 24, i1 false)
  %9 = call i32 @mbedtls_chacha20_setkey(ptr noundef nonnull %1, ptr noundef nonnull @test_key) #7
  %10 = icmp eq i32 %9, 0
  br i1 %10, label %14, label %11

11:                                               ; preds = %6
  br i1 %.not27, label %.thread, label %12

12:                                               ; preds = %11
  %13 = call i32 (ptr, ...) @printf(ptr noundef nonnull dereferenceable(1) @.str.1, i32 noundef %9)
  br label %.thread

14:                                               ; preds = %6
  %15 = call fastcc i32 @chachapoly_crypt_and_tag(ptr noundef nonnull %1, i32 noundef 0, i64 noundef 114, ptr noundef nonnull @test_nonce, ptr noundef nonnull @test_aad, i64 noundef 12, ptr noundef nonnull @test_input, ptr noundef nonnull %2, ptr noundef nonnull %3)
  %16 = icmp eq i32 %15, 0
  br i1 %16, label %20, label %17

17:                                               ; preds = %14
  br i1 %.not27, label %.thread, label %18

18:                                               ; preds = %17
  %19 = call i32 (ptr, ...) @printf(ptr noundef nonnull dereferenceable(1) @.str.2, i32 noundef %15)
  br label %.thread

20:                                               ; preds = %14
  %bcmp = call i32 @bcmp(ptr noundef nonnull dereferenceable(114) %2, ptr noundef nonnull dereferenceable(114) @test_output, i64 114)
  %21 = icmp eq i32 %bcmp, 0
  br i1 %21, label %24, label %22

22:                                               ; preds = %20
  br i1 %.not27, label %.thread, label %23

23:                                               ; preds = %22
  %puts = call i32 @puts(ptr nonnull dereferenceable(1) @str)
  br label %.thread

24:                                               ; preds = %20
  %bcmp30 = call i32 @bcmp(ptr noundef nonnull dereferenceable(16) %3, ptr noundef nonnull dereferenceable(16) @test_mac, i64 16)
  %25 = icmp eq i32 %bcmp30, 0
  br i1 %25, label %28, label %26

26:                                               ; preds = %24
  br i1 %.not27, label %.thread, label %27

27:                                               ; preds = %26
  %puts28 = call i32 @puts(ptr nonnull dereferenceable(1) @str.1)
  br label %.thread

28:                                               ; preds = %24
  call void @mbedtls_chacha20_free(ptr noundef nonnull %1) #7
  call void @mbedtls_poly1305_free(ptr noundef nonnull %7) #7
  call void @llvm.memset.p0.i64(ptr noundef nonnull align 8 dereferenceable(24) %8, i8 0, i64 24, i1 false)
  br i1 %.not27, label %.thread, label %29

29:                                               ; preds = %28
  %puts29 = call i32 @puts(ptr nonnull dereferenceable(1) @str.2)
  %putchar = call i32 @putchar(i32 10)
  br label %.thread

.thread:                                          ; preds = %28, %29, %26, %27, %22, %23, %17, %18, %11, %12
  %.024 = phi i32 [ -1, %12 ], [ -1, %11 ], [ -1, %18 ], [ -1, %17 ], [ -1, %23 ], [ -1, %22 ], [ -1, %27 ], [ -1, %26 ], [ 0, %29 ], [ 0, %28 ]
  call void @llvm.lifetime.end.p0(i64 16, ptr nonnull %3) #7
  call void @llvm.lifetime.end.p0(i64 200, ptr nonnull %2) #7
  call void @llvm.lifetime.end.p0(i64 240, ptr nonnull %1) #7
  ret i32 %.024
}